target datalayout = "e-m:e-p270:32:32-p271:32:32-p272:64:64-i64:64-i128:128-f80:128-n8:16:32:64-S128"
target triple = "x86_64-pc-linux-gnu"

%class.QPointer = type { %class.QWeakPointer }
%class.QWeakPointer = type { ptr, ptr }
%class.QString = type { %struct.QArrayDataPointer }
%struct.QArrayDataPointer = type { ptr, ptr, i64 }
%class.QSharedPointer = type { ptr, ptr }
%class.IOGraphDialog = type { %class.WiresharkDialog.base, ptr, ptr, %class.QPointer, ptr, %class.QList.5, %class.QString, ptr, ptr, i32, %struct.nstime_t, i8, ptr, %class.QPoint, %class.QMenu, ptr, i8, i8, i8, i8, i32, %class.QSharedPointer, %class.QSharedPointer.9 }
%class.WiresharkDialog.base = type <{ %class.GeometryStateDialog, ptr, i8, [7 x i8], %class.QString, %class.QList.1, i32, i8 }>
%class.GeometryStateDialog = type { %class.QDialog, %class.QString, ptr }
%class.QDialog = type { %class.QWidget }
%class.QWidget = type { %class.QObject, %class.QPaintDevice.base, ptr }
%class.QObject = type { ptr, %class.QScopedPointer }
%class.QScopedPointer = type { ptr }
%class.QPaintDevice.base = type <{ ptr, i16 }>
%class.QList.1 = type { %struct.QArrayDataPointer.4 }
%struct.QArrayDataPointer.4 = type { ptr, ptr, i64 }
%class.QList.5 = type { %struct.QArrayDataPointer.8 }
%struct.QArrayDataPointer.8 = type { ptr, ptr, i64 }
%struct.nstime_t = type { i64, i32 }
%class.QPoint = type { i32, i32 }
%class.QMenu = type { %class.QWidget }
%class.QSharedPointer.9 = type { ptr, ptr }

; Function Attrs: mustprogress null_pointer_is_valid sspstrong uwtable
define void @_ZN13IOGraphDialog16modelRowsRemovedERK11QModelIndexii(ptr noundef align 8 dereferenceable_or_null(384) %0, ptr noundef align 8 dereferenceable(24) %1, i32 noundef %2, i32 noundef %3) #3 align 2 {
  %5 = alloca ptr, align 8
  %6 = alloca ptr, align 8
  %7 = alloca i32, align 4
  %8 = alloca i32, align 4
  %9 = alloca i32, align 4
  %10 = alloca ptr, align 8
  store ptr %0, ptr %5, align 8
  store ptr %1, ptr %6, align 8
  store i32 %2, ptr %7, align 4
  store i32 %3, ptr %8, align 4
  %11 = load ptr, ptr %5, align 8
  call void @llvm.lifetime.start.p0(i64 4, ptr %9) #2
  %12 = load i32, ptr %8, align 4
  store i32 %12, ptr %9, align 4
  br label %13

13:                                               ; preds = %30, %4
  %14 = load i32, ptr %9, align 4
  %15 = load i32, ptr %7, align 4
  %16 = icmp sge i32 %14, %15
  br i1 %16, label %18, label %17

17:                                               ; preds = %13
  call void @llvm.lifetime.end.p0(i64 4, ptr %9) #2
  br label %33

18:                                               ; preds = %13
  call void @llvm.lifetime.start.p0(i64 8, ptr %10) #2
  %19 = getelementptr inbounds nuw %class.IOGraphDialog, ptr %11, i32 0, i32 5
  %20 = load i32, ptr %9, align 4
  %21 = sext i32 %20 to i64
  %22 = call noundef ptr @_ZN5QListIP7IOGraphE6takeAtEx(ptr noundef align 8 dereferenceable_or_null(24) %19, i64 noundef %21)
  store ptr %22, ptr %10, align 8
  %23 = load ptr, ptr %10, align 8
  %24 = icmp eq ptr %23, null
  br i1 %24, label %29, label %25

25:                                               ; preds = %18
  %26 = load ptr, ptr %23, align 8
  %27 = getelementptr inbounds ptr, ptr %26, i64 4
  %28 = load ptr, ptr %27, align 8
  call void %28(ptr noundef align 8 dereferenceable_or_null(252) %23) #2
  br label %29

29:                                               ; preds = %25, %18
  call void @llvm.lifetime.end.p0(i64 8, ptr %10) #2
  br label %30

30:                                               ; preds = %29
  %31 = load i32, ptr %9, align 4
  %32 = add i32 %31, -1
  store i32 %32, ptr %9, align 4
  br label %13, !llvm.loop !26

33:                                               ; preds = %17
  ret void
}