; Function Attrs: mustprogress null_pointer_is_valid sspstrong uwtable
define void @_ZN13IOGraphDialog16modelRowsRemovedERK11QModelIndexii(ptr noundef align 8 dereferenceable_or_null(384) %0, ptr readnone align 8 captures(none) %1, i32 noundef %2, i32 noundef %3) #2 align 2 {
  %.not7 = icmp slt i32 %3, %2
  br i1 %.not7, label %._crit_edge, label %.lr.ph

.lr.ph:                                           ; preds = %4
  %5 = getelementptr inbounds nuw i8, ptr %0, i64 184
  br label %6

._crit_edge:                                      ; preds = %14, %4
  ret void

6:                                                ; preds = %.lr.ph, %14
  %.08 = phi i32 [ %3, %.lr.ph ], [ %15, %14 ]
  %7 = sext i32 %.08 to i64
  %8 = tail call noundef ptr @_ZN5QListIP7IOGraphE6takeAtEx(ptr noundef nonnull align 8 dereferenceable_or_null(24) %5, i64 noundef %7)
  %9 = icmp eq ptr %8, null
  br i1 %9, label %14, label %10

10:                                               ; preds = %6
  %11 = load ptr, ptr %8, align 8
  %12 = getelementptr inbounds nuw i8, ptr %11, i64 32
  %13 = load ptr, ptr %12, align 8
  tail call void %13(ptr noundef nonnull align 8 dereferenceable_or_null(252) %8) #33
  br label %14

14:                                               ; preds = %10, %6
  %15 = add i32 %.08, -1
  %.not = icmp slt i32 %15, %2
  br i1 %.not, label %._crit_edge, label %6, !llvm.loop !211
}